target datalayout = "e-m:e-p270:32:32-p271:32:32-p272:64:64-i64:64-i128:128-f80:128-n8:16:32:64-S128"
target triple = "x86_64-unknown-linux-gnu"

%"class.icu_75::UObject" = type { ptr }
%"struct.icu_75::CanonIterData" = type { ptr, ptr, %"class.icu_75::UVector" }
%"class.icu_75::UVector" = type { %"class.icu_75::UObject", i32, i32, ptr, ptr, ptr }

; Function Attrs: mustprogress nounwind uwtable
define void @_ZN6icu_7513CanonIterDataD2Ev(ptr noundef nonnull align 8 dereferenceable(56) %this) unnamed_addr #2 align 2 personality ptr @__gxx_personality_v0 {
entry:
  %this.addr = alloca ptr, align 8
  store ptr %this, ptr %this.addr, align 8
  %this1 = load ptr, ptr %this.addr, align 8
  %mutableTrie = getelementptr inbounds %"struct.icu_75::CanonIterData", ptr %this1, i32 0, i32 0
  %0 = load ptr, ptr %mutableTrie, align 8
  invoke void @umutablecptrie_close_75(ptr noundef %0)
          to label %invoke.cont unwind label %terminate.lpad

invoke.cont:                                      ; preds = %entry
  %trie = getelementptr inbounds %"struct.icu_75::CanonIterData", ptr %this1, i32 0, i32 1
  %1 = load ptr, ptr %trie, align 8
  invoke void @ucptrie_close_75(ptr noundef %1)
          to label %invoke.cont2 unwind label %terminate.lpad

invoke.cont2:                                     ; preds = %invoke.cont
  %canonStartSets = getelementptr inbounds %"struct.icu_75::CanonIterData", ptr %this1, i32 0, i32 2
  call void @_ZN6icu_757UVectorD1Ev(ptr noundef nonnull align 8 dereferenceable(40) %canonStartSets) #7
  ret void

terminate.lpad:                                   ; preds = %invoke.cont, %entry
  %2 = landingpad { ptr, i32 }
          catch ptr null
  %3 = extractvalue { ptr, i32 } %2, 0
  call void @__clang_call_terminate(ptr %3) #8
  unreachable
}