; Function Attrs: mustprogress nounwind uwtable
define void @_ZN6icu_7513CanonIterDataD2Ev(ptr noundef nonnull align 8 dereferenceable(56) %this) unnamed_addr #4 align 2 personality ptr @__gxx_personality_v0 {
entry:
  %0 = load ptr, ptr %this, align 8
  invoke void @umutablecptrie_close_75(ptr noundef %0)
          to label %invoke.cont unwind label %terminate.lpad

invoke.cont:                                      ; preds = %entry
  %trie = getelementptr inbounds i8, ptr %this, i64 8
  %1 = load ptr, ptr %trie, align 8
  invoke void @ucptrie_close_75(ptr noundef %1)
          to label %invoke.cont2 unwind label %terminate.lpad

invoke.cont2:                                     ; preds = %invoke.cont
  %canonStartSets = getelementptr inbounds i8, ptr %this, i64 16
  tail call void @_ZN6icu_757UVectorD1Ev(ptr noundef nonnull align 8 dereferenceable(40) %canonStartSets) #15
  ret void

terminate.lpad:                                   ; preds = %invoke.cont, %entry
  %2 = landingpad { ptr, i32 }
          catch ptr null
  %3 = extractvalue { ptr, i32 } %2, 0
  tail call void @__clang_call_terminate(ptr %3) #16
  unreachable
}